; Function Attrs: nounwind uwtable
define dso_local range(i32 -1, 1) i32 @evutil_gettime_monotonic_(ptr noundef captures(none) %base, ptr noundef captures(none) %tp) local_unnamed_addr #1 {
entry:
  %ts = alloca %struct.timespec, align 8
  %0 = load i32, ptr %base, align 8
  %cmp = icmp slt i32 %0, 0
  br i1 %cmp, label %if.then, label %if.end3

if.then:                                          ; preds = %entry
  %call = tail call i32 @gettimeofday(ptr noundef %tp, ptr noundef null) #8
  %cmp1 = icmp slt i32 %call, 0
  br i1 %cmp1, label %return, label %if.end

if.end:                                           ; preds = %if.then
  %1 = load i64, ptr %tp, align 8
  %adjust_monotonic_clock.i = getelementptr inbounds nuw i8, ptr %base, i64 8
  %2 = load i64, ptr %adjust_monotonic_clock.i, align 8
  %add.i = add nsw i64 %2, %1
  store i64 %add.i, ptr %tp, align 8
  %tv_usec.i = getelementptr inbounds nuw i8, ptr %tp, i64 8
  %3 = load i64, ptr %tv_usec.i, align 8
  %tv_usec4.i = getelementptr inbounds nuw i8, ptr %base, i64 16
  %4 = load i64, ptr %tv_usec4.i, align 8
  %add5.i = add nsw i64 %4, %3
  store i64 %add5.i, ptr %tv_usec.i, align 8
  %cmp.i = icmp sgt i64 %add5.i, 999999
  br i1 %cmp.i, label %if.then.i, label %do.end.i

if.then.i:                                        ; preds = %if.end
  %inc.i = add nsw i64 %add.i, 1
  store i64 %inc.i, ptr %tp, align 8
  %sub.i = add nsw i64 %add5.i, -1000000
  store i64 %sub.i, ptr %tv_usec.i, align 8
  br label %do.end.i

do.end.i:                                         ; preds = %if.then.i, %if.end
  %5 = phi i64 [ %add5.i, %if.end ], [ %sub.i, %if.then.i ]
  %6 = phi i64 [ %add.i, %if.end ], [ %inc.i, %if.then.i ]
  %last_time.i = getelementptr inbounds nuw i8, ptr %base, i64 24
  %7 = load i64, ptr %last_time.i, align 8
  %cmp12.i = icmp eq i64 %6, %7
  br i1 %cmp12.i, label %cond.true.i, label %cond.false.i

cond.true.i:                                      ; preds = %do.end.i
  %tv_usec15.i = getelementptr inbounds nuw i8, ptr %base, i64 32
  %8 = load i64, ptr %tv_usec15.i, align 8
  %cmp16.i = icmp slt i64 %5, %8
  br i1 %cmp16.i, label %do.body22.i, label %adjust_monotonic_time.exit

cond.false.i:                                     ; preds = %do.end.i
  %cmp20.i = icmp slt i64 %6, %7
  br i1 %cmp20.i, label %cond.false.do.body22_crit_edge.i, label %adjust_monotonic_time.exit

cond.false.do.body22_crit_edge.i:                 ; preds = %cond.false.i
  %tv_usec29.phi.trans.insert.i = getelementptr inbounds nuw i8, ptr %base, i64 32
  %.pre.i = load i64, ptr %tv_usec29.phi.trans.insert.i, align 8
  br label %do.body22.i

do.body22.i:                                      ; preds = %cond.false.do.body22_crit_edge.i, %cond.true.i
  %9 = phi i64 [ %.pre.i, %cond.false.do.body22_crit_edge.i ], [ %8, %cond.true.i ]
  %sub26.i = sub i64 %7, %6
  %sub31.i = sub nsw i64 %9, %5
  %cmp34.i = icmp slt i64 %sub31.i, 0
  %add38.i = add nsw i64 %sub31.i, 1000000
  %adjust.sroa.4.0.i = select i1 %cmp34.i, i64 %add38.i, i64 %sub31.i
  %sub31.lobit.i = ashr i64 %sub31.i, 63
  %10 = load i64, ptr %adjust_monotonic_clock.i, align 8
  %adjust.sroa.0.0.i = add i64 %sub26.i, %10
  %add45.i = add i64 %adjust.sroa.0.0.i, %sub31.lobit.i
  store i64 %add45.i, ptr %adjust_monotonic_clock.i, align 8
  %11 = load i64, ptr %tv_usec4.i, align 8
  %add51.i = add nsw i64 %adjust.sroa.4.0.i, %11
  store i64 %add51.i, ptr %tv_usec4.i, align 8
  %cmp56.i = icmp sgt i64 %add51.i, 999999
  br i1 %cmp56.i, label %if.then57.i, label %do.end65.i

if.then57.i:                                      ; preds = %do.body22.i
  %inc60.i = add nsw i64 %add45.i, 1
  store i64 %inc60.i, ptr %adjust_monotonic_clock.i, align 8
  %sub63.i = add nsw i64 %add51.i, -1000000
  store i64 %sub63.i, ptr %tv_usec4.i, align 8
  br label %do.end65.i

do.end65.i:                                       ; preds = %if.then57.i, %do.body22.i
  tail call void @llvm.memcpy.p0.p0.i64(ptr noundef nonnull align 8 dereferenceable(16) %tp, ptr noundef nonnull align 8 dereferenceable(16) %last_time.i, i64 16, i1 false)
  br label %adjust_monotonic_time.exit

adjust_monotonic_time.exit:                       ; preds = %cond.true.i, %cond.false.i, %do.end65.i
  tail call void @llvm.memcpy.p0.p0.i64(ptr noundef nonnull align 8 dereferenceable(16) %last_time.i, ptr noundef nonnull align 8 dereferenceable(16) %tp, i64 16, i1 false)
  br label %return

if.end3:                                          ; preds = %entry
  %call5 = call i32 @clock_gettime(i32 noundef %0, ptr noundef nonnull %ts) #8
  %cmp6 = icmp eq i32 %call5, -1
  br i1 %cmp6, label %return, label %if.end8

if.end8:                                          ; preds = %if.end3
  %12 = load i64, ptr %ts, align 8
  store i64 %12, ptr %tp, align 8
  %tv_nsec = getelementptr inbounds nuw i8, ptr %ts, i64 8
  %13 = load i64, ptr %tv_nsec, align 8
  %div = sdiv i64 %13, 1000
  %tv_usec = getelementptr inbounds nuw i8, ptr %tp, i64 8
  store i64 %div, ptr %tv_usec, align 8
  br label %return

return:                                           ; preds = %if.end3, %if.then, %if.end8, %adjust_monotonic_time.exit
  %retval.0 = phi i32 [ 0, %adjust_monotonic_time.exit ], [ 0, %if.end8 ], [ -1, %if.then ], [ -1, %if.end3 ]
  ret i32 %retval.0
}